; Function Attrs: mustprogress nounwind uwtable
define hidden noundef range(i32 -1, 10) i32 @_ZN19salL_rReg_immI2Node8peepholeEP5BlockiP8PhaseCFGP13PhaseRegAlloc(ptr nocapture noundef nonnull readnone align 8 dereferenceable(88) %0, ptr noundef %1, i32 noundef %2, ptr noundef %3, ptr noundef %4) unnamed_addr #0 align 2 {
  %6 = load i32, ptr getelementptr inbounds (i8, ptr @_ZN10VM_Version11_cpuid_infoE, i64 4), align 4
  switch i32 %6, label %_ZN10VM_Version21supports_fast_2op_leaEv.exit.thread [
    i32 1970169159, label %_ZN10VM_Version21supports_fast_2op_leaEv.exit
    i32 1752462657, label %7
  ]

7:                                                ; preds = %5
  %8 = load i64, ptr @_ZN19Abstract_VM_Version9_featuresE, align 8
  %9 = and i64 %8, 262144
  %.not = icmp eq i64 %9, 0
  br i1 %.not, label %_ZN10VM_Version21supports_fast_2op_leaEv.exit.thread, label %12

_ZN10VM_Version21supports_fast_2op_leaEv.exit:    ; preds = %5
  %10 = load i64, ptr @_ZN19Abstract_VM_Version9_featuresE, align 8
  %11 = and i64 %10, 262144
  %.not6 = icmp eq i64 %11, 0
  br i1 %.not6, label %_ZN10VM_Version21supports_fast_2op_leaEv.exit.thread, label %12

12:                                               ; preds = %7, %_ZN10VM_Version21supports_fast_2op_leaEv.exit
  %13 = tail call noundef zeroext i1 @_ZN8Peephole16lea_coalesce_immEP5BlockiP8PhaseCFGP13PhaseRegAllocPFP8MachNodevEj(ptr noundef %1, i32 noundef %2, ptr noundef %3, ptr noundef %4, ptr noundef nonnull @"_ZZN19salL_rReg_immI2Node8peepholeEP5BlockiP8PhaseCFGP13PhaseRegAllocEN3$_08__invokeEv", i32 noundef 836) #3
  br i1 %13, label %14, label %_ZN10VM_Version21supports_fast_2op_leaEv.exit.thread

_ZN10VM_Version21supports_fast_2op_leaEv.exit.thread: ; preds = %5, %7, %12, %_ZN10VM_Version21supports_fast_2op_leaEv.exit
  br label %14

14:                                               ; preds = %12, %_ZN10VM_Version21supports_fast_2op_leaEv.exit.thread
  %.0 = phi i32 [ -1, %_ZN10VM_Version21supports_fast_2op_leaEv.exit.thread ], [ 9, %12 ]
  ret i32 %.0
}